; Function Attrs: mustprogress nounwind uwtable
define internal fastcc void @_ZNSt10unique_ptrIN9grpc_core12_GLOBAL__N_129ServiceConfigChannelArgFilterESt14default_deleteIS2_EED2Ev(ptr noundef nonnull align 8 captures(none) dereferenceable(8) %0) unnamed_addr #16 align 2 personality ptr @__gxx_personality_v0 {
  %2 = load ptr, ptr %0, align 8, !tbaa !75
  %.not = icmp eq ptr %2, null
  br i1 %.not, label %14, label %3

3:                                                ; preds = %1
  %4 = getelementptr inbounds nuw i8, ptr %2, i64 8
  %5 = load ptr, ptr %4, align 8, !tbaa !80
  %.not.i.i.i = icmp eq ptr %5, null
  br i1 %.not.i.i.i, label %_ZNKSt14default_deleteIN9grpc_core12_GLOBAL__N_129ServiceConfigChannelArgFilterEEclEPS2_.exit, label %6

6:                                                ; preds = %3
  %7 = getelementptr inbounds nuw i8, ptr %5, i64 8
  %8 = atomicrmw sub ptr %7, i64 1 acq_rel, align 8
  %9 = icmp eq i64 %8, 1
  br i1 %9, label %10, label %_ZNKSt14default_deleteIN9grpc_core12_GLOBAL__N_129ServiceConfigChannelArgFilterEEclEPS2_.exit, !prof !83

10:                                               ; preds = %6
  %11 = load ptr, ptr %5, align 8, !tbaa !21
  %12 = getelementptr inbounds nuw i8, ptr %11, i64 8
  %13 = load ptr, ptr %12, align 8
  tail call void %13(ptr noundef nonnull align 8 dereferenceable(16) %5) #30
  br label %_ZNKSt14default_deleteIN9grpc_core12_GLOBAL__N_129ServiceConfigChannelArgFilterEEclEPS2_.exit

_ZNKSt14default_deleteIN9grpc_core12_GLOBAL__N_129ServiceConfigChannelArgFilterEEclEPS2_.exit: ; preds = %3, %6, %10
  tail call void @_ZdlPvm(ptr noundef nonnull %2, i64 noundef 16) #33
  br label %14

14:                                               ; preds = %_ZNKSt14default_deleteIN9grpc_core12_GLOBAL__N_129ServiceConfigChannelArgFilterEEclEPS2_.exit, %1
  store ptr null, ptr %0, align 8, !tbaa !75
  ret void
}